; Function Attrs: nounwind uwtable
define ptr @glfwGetKeyName(i32 noundef %0, i32 noundef %1) local_unnamed_addr #0 {
  %3 = load i32, ptr @_glfw, align 8, !tbaa !170
  %.not = icmp eq i32 %3, 0
  br i1 %.not, label %4, label %5

4:                                                ; preds = %2
  tail call void (i32, ptr, ...) @_glfwInputError(i32 noundef 65537, ptr noundef null) #12
  br label %18

5:                                                ; preds = %2
  %.not18 = icmp eq i32 %0, -1
  br i1 %.not18, label %15, label %6

6:                                                ; preds = %5
  %7 = add i32 %0, -349
  %or.cond = icmp ult i32 %7, -317
  br i1 %or.cond, label %8, label %9

8:                                                ; preds = %6
  tail call void (i32, ptr, ...) @_glfwInputError(i32 noundef 65539, ptr noundef nonnull @.str.398, i32 noundef %0) #12
  br label %18

9:                                                ; preds = %6
  %.not19 = icmp ne i32 %0, 336
  %10 = add nsw i32 %0, -335
  %or.cond3 = icmp ult i32 %10, -15
  %or.cond20 = select i1 %.not19, i1 %or.cond3, i1 false
  %11 = add nsw i32 %0, -163
  %or.cond5 = icmp ult i32 %11, -124
  %or.cond21 = select i1 %or.cond20, i1 %or.cond5, i1 false
  br i1 %or.cond21, label %18, label %12

12:                                               ; preds = %9
  %13 = load ptr, ptr getelementptr inbounds nuw (i8, ptr @_glfw, i64 144), align 8, !tbaa !177
  %14 = tail call i32 %13(i32 noundef %0) #12
  br label %15

15:                                               ; preds = %12, %5
  %.0 = phi i32 [ %14, %12 ], [ %1, %5 ]
  %16 = load ptr, ptr getelementptr inbounds nuw (i8, ptr @_glfw, i64 136), align 8, !tbaa !178
  %17 = tail call ptr %16(i32 noundef %.0) #12
  br label %18

18:                                               ; preds = %9, %15, %8, %4
  %.016 = phi ptr [ null, %8 ], [ %17, %15 ], [ null, %4 ], [ null, %9 ]
  ret ptr %.016
}